target datalayout = "e-m:e-p270:32:32-p271:32:32-p272:64:64-i64:64-i128:128-f80:128-n8:16:32:64-S128"
target triple = "x86_64-pc-linux-gnu"

%struct._address = type { i32, i32, ptr, ptr }
%struct.conversation_element = type { i32, %union.anon }
%union.anon = type { %struct._address }
%struct.conversation = type { ptr, ptr, ptr, i32, i32, i32, ptr, ptr, i32, ptr }

@conversation_hashtable_deinterlacer = internal global ptr null, align 8
@new_index = internal global i32 0, align 4

; Function Attrs: inlinehint null_pointer_is_valid sspstrong uwtable
define internal void @alloc_address_wmem(ptr noundef %0, ptr noundef %1, i32 noundef %2, i32 noundef %3, ptr noundef %4) #7 {
  %6 = alloca ptr, align 8
  %7 = alloca ptr, align 8
  %8 = alloca i32, align 4
  %9 = alloca i32, align 4
  %10 = alloca ptr, align 8
  store ptr %0, ptr %6, align 8
  store ptr %1, ptr %7, align 8
  store i32 %2, ptr %8, align 4
  store i32 %3, ptr %9, align 4
  store ptr %4, ptr %10, align 8
  br label %11

11:                                               ; preds = %5
  br label %12

12:                                               ; preds = %11
  %13 = load ptr, ptr %7, align 8
  call void @clear_address(ptr noundef %13)
  %14 = load i32, ptr %8, align 4
  %15 = load ptr, ptr %7, align 8
  %16 = getelementptr inbounds nuw %struct._address, ptr %15, i32 0, i32 0
  store i32 %14, ptr %16, align 8
  %17 = load i32, ptr %9, align 4
  %18 = icmp eq i32 %17, 0
  br i1 %18, label %19, label %22

19:                                               ; preds = %12
  br label %20

20:                                               ; preds = %19
  br label %21

21:                                               ; preds = %20
  br label %39

22:                                               ; preds = %12
  br label %23

23:                                               ; preds = %22
  br label %24

24:                                               ; preds = %23
  br label %25

25:                                               ; preds = %24
  br label %26

26:                                               ; preds = %25
  %27 = load ptr, ptr %6, align 8
  %28 = load ptr, ptr %10, align 8
  %29 = load i32, ptr %9, align 4
  %30 = sext i32 %29 to i64
  %31 = call ptr @wmem_memdup(ptr noundef %27, ptr noundef %28, i64 noundef %30) #15
  %32 = load ptr, ptr %7, align 8
  %33 = getelementptr inbounds nuw %struct._address, ptr %32, i32 0, i32 3
  store ptr %31, ptr %33, align 8
  %34 = load ptr, ptr %7, align 8
  %35 = getelementptr inbounds nuw %struct._address, ptr %34, i32 0, i32 2
  store ptr %31, ptr %35, align 8
  %36 = load i32, ptr %9, align 4
  %37 = load ptr, ptr %7, align 8
  %38 = getelementptr inbounds nuw %struct._address, ptr %37, i32 0, i32 1
  store i32 %36, ptr %38, align 4
  br label %39

39:                                               ; preds = %26, %21
  ret void
}

; Function Attrs: inlinehint nounwind null_pointer_is_valid sspstrong uwtable
define internal void @clear_address(ptr noundef %0) #9 {
  %2 = alloca ptr, align 8
  store ptr %0, ptr %2, align 8
  %3 = load ptr, ptr %2, align 8
  %4 = getelementptr inbounds nuw %struct._address, ptr %3, i32 0, i32 0
  store i32 0, ptr %4, align 8
  %5 = load ptr, ptr %2, align 8
  %6 = getelementptr inbounds nuw %struct._address, ptr %5, i32 0, i32 1
  store i32 0, ptr %6, align 4
  %7 = load ptr, ptr %2, align 8
  %8 = getelementptr inbounds nuw %struct._address, ptr %7, i32 0, i32 2
  store ptr null, ptr %8, align 8
  %9 = load ptr, ptr %2, align 8
  %10 = getelementptr inbounds nuw %struct._address, ptr %9, i32 0, i32 3
  store ptr null, ptr %10, align 8
  ret void
}

; Function Attrs: inlinehint null_pointer_is_valid sspstrong uwtable
define internal void @copy_address_wmem(ptr noundef %0, ptr noundef %1, ptr noundef %2) #7 {
  %4 = alloca ptr, align 8
  %5 = alloca ptr, align 8
  %6 = alloca ptr, align 8
  store ptr %0, ptr %4, align 8
  store ptr %1, ptr %5, align 8
  store ptr %2, ptr %6, align 8
  %7 = load ptr, ptr %4, align 8
  %8 = load ptr, ptr %5, align 8
  %9 = load ptr, ptr %6, align 8
  %10 = getelementptr inbounds nuw %struct._address, ptr %9, i32 0, i32 0
  %11 = load i32, ptr %10, align 8
  %12 = load ptr, ptr %6, align 8
  %13 = getelementptr inbounds nuw %struct._address, ptr %12, i32 0, i32 1
  %14 = load i32, ptr %13, align 4
  %15 = load ptr, ptr %6, align 8
  %16 = getelementptr inbounds nuw %struct._address, ptr %15, i32 0, i32 2
  %17 = load ptr, ptr %16, align 8
  call void @alloc_address_wmem(ptr noundef %7, ptr noundef %8, i32 noundef %11, i32 noundef %14, ptr noundef %17)
  ret void
}

; Function Attrs: null_pointer_is_valid sspstrong uwtable
define ptr @conversation_new_deinterlacer(i32 noundef %0, ptr noundef %1, ptr noundef %2, i32 noundef %3, i32 noundef %4, i32 noundef %5, i32 noundef %6) #0 {
  %8 = alloca i32, align 4
  %9 = alloca ptr, align 8
  %10 = alloca ptr, align 8
  %11 = alloca i32, align 4
  %12 = alloca i32, align 4
  %13 = alloca i32, align 4
  %14 = alloca i32, align 4
  %15 = alloca ptr, align 8
  %16 = alloca ptr, align 8
  store i32 %0, ptr %8, align 4
  store ptr %1, ptr %9, align 8
  store ptr %2, ptr %10, align 8
  store i32 %3, ptr %11, align 4
  store i32 %4, ptr %12, align 4
  store i32 %5, ptr %13, align 4
  store i32 %6, ptr %14, align 4
  call void @llvm.lifetime.start.p0(i64 8, ptr %15) #12
  %17 = call ptr @wmem_file_scope()
  %18 = call noalias ptr @wmem_alloc0(ptr noundef %17, i64 noundef 72) #16
  store ptr %18, ptr %15, align 8
  %19 = load i32, ptr @new_index, align 4
  %20 = load ptr, ptr %15, align 8
  %21 = getelementptr inbounds nuw %struct.conversation, ptr %20, i32 0, i32 3
  store i32 %19, ptr %21, align 8
  %22 = load i32, ptr %8, align 4
  %23 = load ptr, ptr %15, align 8
  %24 = getelementptr inbounds nuw %struct.conversation, ptr %23, i32 0, i32 5
  store i32 %22, ptr %24, align 8
  %25 = load ptr, ptr %15, align 8
  %26 = getelementptr inbounds nuw %struct.conversation, ptr %25, i32 0, i32 4
  store i32 %22, ptr %26, align 4
  call void @llvm.lifetime.start.p0(i64 8, ptr %16) #12
  %27 = call ptr @wmem_file_scope()
  %28 = call noalias ptr @wmem_alloc(ptr noundef %27, i64 noundef 192) #16
  store ptr %28, ptr %16, align 8
  %29 = load ptr, ptr %16, align 8
  %30 = getelementptr %struct.conversation_element, ptr %29, i64 0
  %31 = getelementptr inbounds nuw %struct.conversation_element, ptr %30, i32 0, i32 0
  store i32 1, ptr %31, align 8
  %32 = load ptr, ptr %9, align 8
  %33 = icmp ne ptr %32, null
  br i1 %33, label %34, label %40

34:                                               ; preds = %7
  %35 = call ptr @wmem_file_scope()
  %36 = load ptr, ptr %16, align 8
  %37 = getelementptr %struct.conversation_element, ptr %36, i64 0
  %38 = getelementptr inbounds nuw %struct.conversation_element, ptr %37, i32 0, i32 1
  %39 = load ptr, ptr %9, align 8
  call void @copy_address_wmem(ptr noundef %35, ptr noundef %38, ptr noundef %39)
  br label %44

40:                                               ; preds = %7
  %41 = load ptr, ptr %16, align 8
  %42 = getelementptr %struct.conversation_element, ptr %41, i64 0
  %43 = getelementptr inbounds nuw %struct.conversation_element, ptr %42, i32 0, i32 1
  call void @clear_address(ptr noundef %43)
  br label %44

44:                                               ; preds = %40, %34
  %45 = load ptr, ptr %16, align 8
  %46 = getelementptr %struct.conversation_element, ptr %45, i64 1
  %47 = getelementptr inbounds nuw %struct.conversation_element, ptr %46, i32 0, i32 0
  store i32 1, ptr %47, align 8
  %48 = load ptr, ptr %10, align 8
  %49 = icmp ne ptr %48, null
  br i1 %49, label %50, label %56

50:                                               ; preds = %44
  %51 = call ptr @wmem_file_scope()
  %52 = load ptr, ptr %16, align 8
  %53 = getelementptr %struct.conversation_element, ptr %52, i64 1
  %54 = getelementptr inbounds nuw %struct.conversation_element, ptr %53, i32 0, i32 1
  %55 = load ptr, ptr %10, align 8
  call void @copy_address_wmem(ptr noundef %51, ptr noundef %54, ptr noundef %55)
  br label %60

56:                                               ; preds = %44
  %57 = load ptr, ptr %16, align 8
  %58 = getelementptr %struct.conversation_element, ptr %57, i64 1
  %59 = getelementptr inbounds nuw %struct.conversation_element, ptr %58, i32 0, i32 1
  call void @clear_address(ptr noundef %59)
  br label %60

60:                                               ; preds = %56, %50
  %61 = load ptr, ptr %16, align 8
  %62 = getelementptr %struct.conversation_element, ptr %61, i64 2
  %63 = getelementptr inbounds nuw %struct.conversation_element, ptr %62, i32 0, i32 0
  store i32 4, ptr %63, align 8
  %64 = load i32, ptr %12, align 4
  %65 = load ptr, ptr %16, align 8
  %66 = getelementptr %struct.conversation_element, ptr %65, i64 2
  %67 = getelementptr inbounds nuw %struct.conversation_element, ptr %66, i32 0, i32 1
  store i32 %64, ptr %67, align 8
  %68 = load ptr, ptr %16, align 8
  %69 = getelementptr %struct.conversation_element, ptr %68, i64 3
  %70 = getelementptr inbounds nuw %struct.conversation_element, ptr %69, i32 0, i32 0
  store i32 4, ptr %70, align 8
  %71 = load i32, ptr %13, align 4
  %72 = load ptr, ptr %16, align 8
  %73 = getelementptr %struct.conversation_element, ptr %72, i64 3
  %74 = getelementptr inbounds nuw %struct.conversation_element, ptr %73, i32 0, i32 1
  store i32 %71, ptr %74, align 8
  %75 = load ptr, ptr %16, align 8
  %76 = getelementptr %struct.conversation_element, ptr %75, i64 4
  %77 = getelementptr inbounds nuw %struct.conversation_element, ptr %76, i32 0, i32 0
  store i32 4, ptr %77, align 8
  %78 = load i32, ptr %14, align 4
  %79 = load ptr, ptr %16, align 8
  %80 = getelementptr %struct.conversation_element, ptr %79, i64 4
  %81 = getelementptr inbounds nuw %struct.conversation_element, ptr %80, i32 0, i32 1
  store i32 %78, ptr %81, align 8
  %82 = load ptr, ptr %16, align 8
  %83 = getelementptr %struct.conversation_element, ptr %82, i64 5
  %84 = getelementptr inbounds nuw %struct.conversation_element, ptr %83, i32 0, i32 0
  store i32 0, ptr %84, align 8
  %85 = load i32, ptr %11, align 4
  %86 = load ptr, ptr %16, align 8
  %87 = getelementptr %struct.conversation_element, ptr %86, i64 5
  %88 = getelementptr inbounds nuw %struct.conversation_element, ptr %87, i32 0, i32 1
  store i32 %85, ptr %88, align 8
  %89 = load ptr, ptr %16, align 8
  %90 = load ptr, ptr %15, align 8
  %91 = getelementptr inbounds nuw %struct.conversation, ptr %90, i32 0, i32 9
  store ptr %89, ptr %91, align 8
  %92 = load i32, ptr @new_index, align 4
  %93 = add i32 %92, 1
  store i32 %93, ptr @new_index, align 4
  %94 = load ptr, ptr @conversation_hashtable_deinterlacer, align 8
  %95 = load ptr, ptr %15, align 8
  call void @conversation_insert_into_hashtable(ptr noundef %94, ptr noundef %95)
  %96 = load ptr, ptr %15, align 8
  call void @llvm.lifetime.end.p0(i64 8, ptr %16) #12
  call void @llvm.lifetime.end.p0(i64 8, ptr %15) #12
  ret ptr %96
}