; Function Attrs: null_pointer_is_valid sspstrong uwtable
define noundef ptr @conversation_new_deinterlacer(i32 noundef %0, ptr noundef readonly captures(address_is_null) %1, ptr noundef readonly captures(address_is_null) %2, i32 noundef %3, i32 noundef %4, i32 noundef %5, i32 noundef %6) local_unnamed_addr #0 {
  %8 = tail call ptr @wmem_file_scope()
  %9 = tail call noalias dereferenceable_or_null(72) ptr @wmem_alloc0(ptr noundef %8, i64 noundef 72) #19
  %10 = load i32, ptr @new_index, align 4
  %11 = getelementptr inbounds nuw i8, ptr %9, i64 24
  store i32 %10, ptr %11, align 8
  %12 = getelementptr inbounds nuw i8, ptr %9, i64 32
  store i32 %0, ptr %12, align 8
  %13 = getelementptr inbounds nuw i8, ptr %9, i64 28
  store i32 %0, ptr %13, align 4
  %14 = tail call ptr @wmem_file_scope()
  %15 = tail call noalias dereferenceable_or_null(192) ptr @wmem_alloc(ptr noundef %14, i64 noundef 192) #19
  store i32 1, ptr %15, align 8
  %.not = icmp eq ptr %1, null
  br i1 %.not, label %31, label %16

16:                                               ; preds = %7
  %17 = tail call ptr @wmem_file_scope()
  %18 = getelementptr inbounds nuw i8, ptr %15, i64 8
  %19 = load i32, ptr %1, align 8
  %20 = getelementptr inbounds nuw i8, ptr %1, i64 4
  %21 = load i32, ptr %20, align 4
  %22 = getelementptr inbounds nuw i8, ptr %1, i64 8
  %23 = load ptr, ptr %22, align 8
  tail call void @llvm.memset.p0.i64(ptr noundef nonnull align 8 dereferenceable(24) %18, i8 0, i64 24, i1 false)
  store i32 %19, ptr %18, align 8
  %24 = icmp eq i32 %21, 0
  br i1 %24, label %copy_address_wmem.exit, label %25

25:                                               ; preds = %16
  %26 = sext i32 %21 to i64
  %27 = tail call ptr @wmem_memdup(ptr noundef %17, ptr noundef %23, i64 noundef %26) #18
  %28 = getelementptr inbounds nuw i8, ptr %15, i64 24
  store ptr %27, ptr %28, align 8
  %29 = getelementptr inbounds nuw i8, ptr %15, i64 16
  store ptr %27, ptr %29, align 8
  %30 = getelementptr inbounds nuw i8, ptr %15, i64 12
  store i32 %21, ptr %30, align 4
  br label %copy_address_wmem.exit

31:                                               ; preds = %7
  %32 = getelementptr inbounds nuw i8, ptr %15, i64 8
  tail call void @llvm.memset.p0.i64(ptr noundef nonnull align 8 dereferenceable(24) %32, i8 0, i64 24, i1 false)
  br label %copy_address_wmem.exit

copy_address_wmem.exit:                           ; preds = %25, %16, %31
  %33 = getelementptr i8, ptr %15, i64 32
  store i32 1, ptr %33, align 8
  %.not30 = icmp eq ptr %2, null
  br i1 %.not30, label %49, label %34

34:                                               ; preds = %copy_address_wmem.exit
  %35 = tail call ptr @wmem_file_scope()
  %36 = getelementptr i8, ptr %15, i64 40
  %37 = load i32, ptr %2, align 8
  %38 = getelementptr inbounds nuw i8, ptr %2, i64 4
  %39 = load i32, ptr %38, align 4
  %40 = getelementptr inbounds nuw i8, ptr %2, i64 8
  %41 = load ptr, ptr %40, align 8
  tail call void @llvm.memset.p0.i64(ptr noundef align 8 dereferenceable(24) %36, i8 0, i64 24, i1 false)
  store i32 %37, ptr %36, align 8
  %42 = icmp eq i32 %39, 0
  br i1 %42, label %copy_address_wmem.exit31, label %43

43:                                               ; preds = %34
  %44 = sext i32 %39 to i64
  %45 = tail call ptr @wmem_memdup(ptr noundef %35, ptr noundef %41, i64 noundef %44) #18
  %46 = getelementptr i8, ptr %15, i64 56
  store ptr %45, ptr %46, align 8
  %47 = getelementptr i8, ptr %15, i64 48
  store ptr %45, ptr %47, align 8
  %48 = getelementptr i8, ptr %15, i64 44
  store i32 %39, ptr %48, align 4
  br label %copy_address_wmem.exit31

49:                                               ; preds = %copy_address_wmem.exit
  %50 = getelementptr i8, ptr %15, i64 40
  tail call void @llvm.memset.p0.i64(ptr noundef align 8 dereferenceable(24) %50, i8 0, i64 24, i1 false)
  br label %copy_address_wmem.exit31

copy_address_wmem.exit31:                         ; preds = %43, %34, %49
  %51 = getelementptr i8, ptr %15, i64 64
  store i32 4, ptr %51, align 8
  %52 = getelementptr i8, ptr %15, i64 72
  store i32 %4, ptr %52, align 8
  %53 = getelementptr i8, ptr %15, i64 96
  store i32 4, ptr %53, align 8
  %54 = getelementptr i8, ptr %15, i64 104
  store i32 %5, ptr %54, align 8
  %55 = getelementptr i8, ptr %15, i64 128
  store i32 4, ptr %55, align 8
  %56 = getelementptr i8, ptr %15, i64 136
  store i32 %6, ptr %56, align 8
  %57 = getelementptr i8, ptr %15, i64 160
  store i32 0, ptr %57, align 8
  %58 = getelementptr i8, ptr %15, i64 168
  store i32 %3, ptr %58, align 8
  %59 = getelementptr inbounds nuw i8, ptr %9, i64 64
  store ptr %15, ptr %59, align 8
  %60 = load i32, ptr @new_index, align 4
  %61 = add i32 %60, 1
  store i32 %61, ptr @new_index, align 4
  %62 = load ptr, ptr @conversation_hashtable_deinterlacer, align 8
  tail call fastcc void @conversation_insert_into_hashtable(ptr noundef %62, ptr noundef %9)
  ret ptr %9
}